---
triple:          'arm64-apple-darwin'
binary-path:     '/Users/alvin/Desktop/cv_test/bin/preprocess'
relocations:
  - { offsetInCU: 0xA2C5, offset: 0xA2C5, size: 0x8, addend: 0x0, symName: __ZNSt3__124__put_character_sequenceB8ue170006IcNS_11char_traitsIcEEEERNS_13basic_ostreamIT_T0_EES7_PKS4_m, symObjAddr: 0xF0C, symBinAddr: 0x100005BA8, symSize: 0x1EC }
  - { offsetInCU: 0xF9DC, offset: 0xF9DC, size: 0x8, addend: 0x0, symName: __ZNSt3__1lsB8ue170006INS_11char_traitsIcEEEERNS_13basic_ostreamIcT_EES6_PKc, symObjAddr: 0xAF8, symBinAddr: 0x100005794, symSize: 0x48 }
  - { offsetInCU: 0xFA22, offset: 0xFA22, size: 0x8, addend: 0x0, symName: __ZNSt3__14endlB8ue170006IcNS_11char_traitsIcEEEERNS_13basic_ostreamIT_T0_EES7_, symObjAddr: 0xB6C, symBinAddr: 0x100005808, symSize: 0x58 }
  - { offsetInCU: 0xFA62, offset: 0xFA62, size: 0x8, addend: 0x0, symName: __ZNSt3__118__constexpr_strlenB8ue170006EPKc, symObjAddr: 0xEDC, symBinAddr: 0x100005B78, symSize: 0x24 }
  - { offsetInCU: 0xFA8E, offset: 0xFA8E, size: 0x8, addend: 0x0, symName: __ZNSt3__116__pad_and_outputB8ue170006IcNS_11char_traitsIcEEEENS_19ostreambuf_iteratorIT_T0_EES6_PKS4_S8_S8_RNS_8ios_baseES4_, symObjAddr: 0x1114, symBinAddr: 0x100005DB0, symSize: 0x240 }
  - { offsetInCU: 0xFB5D, offset: 0xFB5D, size: 0x8, addend: 0x0, symName: __ZNSt3__112__to_addressB8ue170006IKcEEPT_S3_, symObjAddr: 0x1584, symBinAddr: 0x100006220, symSize: 0x14 }
  - { offsetInCU: 0xFBC5, offset: 0xFBC5, size: 0x8, addend: 0x0, symName: __ZNSt3__19use_facetB8ue170006INS_5ctypeIcEEEERKT_RKNS_6localeE, symObjAddr: 0x1804, symBinAddr: 0x1000064A0, symSize: 0x2C }
  - { offsetInCU: 0x10092, offset: 0x10092, size: 0x8, addend: 0x0, symName: __ZNSt3__112__to_addressB8ue170006IN2cv3VecIiLi4EEEEEPT_S5_, symObjAddr: 0x1D48, symBinAddr: 0x1000069E4, symSize: 0x14 }
  - { offsetInCU: 0x100C7, offset: 0x100C7, size: 0x8, addend: 0x0, symName: __ZNSt3__119__libcpp_deallocateB8ue170006EPvmm, symObjAddr: 0x1E20, symBinAddr: 0x100006ABC, symSize: 0x30 }
  - { offsetInCU: 0x1010F, offset: 0x1010F, size: 0x8, addend: 0x0, symName: __ZNSt3__127__do_deallocate_handle_sizeB8ue170006IJEEEvPvmDpT_, symObjAddr: 0x1E50, symBinAddr: 0x100006AEC, symSize: 0x28 }
  - { offsetInCU: 0x1014D, offset: 0x1014D, size: 0x8, addend: 0x0, symName: __ZNSt3__124__libcpp_operator_deleteB8ue170006IJPvEEEvDpT_, symObjAddr: 0x1E78, symBinAddr: 0x100006B14, symSize: 0x24 }
  - { offsetInCU: 0x10182, offset: 0x10182, size: 0x8, addend: 0x0, symName: __ZNSt3__122__make_exception_guardB8ue170006INS_6vectorIN2cv3VecIiLi4EEENS_9allocatorIS4_EEE16__destroy_vectorEEENS_28__exception_guard_exceptionsIT_EESA_, symObjAddr: 0x2188, symBinAddr: 0x100006E24, symSize: 0x40 }
  - { offsetInCU: 0x101B7, offset: 0x101B7, size: 0x8, addend: 0x0, symName: __ZNSt3__119__allocate_at_leastB8ue170006INS_9allocatorIN2cv3VecIiLi4EEEEEEENS_19__allocation_resultINS_16allocator_traitsIT_E7pointerEEERS8_m, symObjAddr: 0x241C, symBinAddr: 0x1000070B8, symSize: 0x40 }
  - { offsetInCU: 0x101FA, offset: 0x101FA, size: 0x8, addend: 0x0, symName: __ZNSt3__13minB8ue170006ImEERKT_S3_S3_, symObjAddr: 0x2530, symBinAddr: 0x1000071CC, symSize: 0x2C }
  - { offsetInCU: 0x1043E, offset: 0x1043E, size: 0x8, addend: 0x0, symName: __ZNSt3__13minB8ue170006ImNS_6__lessIvvEEEERKT_S5_S5_T0_, symObjAddr: 0x2594, symBinAddr: 0x100007230, symSize: 0x54 }
  - { offsetInCU: 0x104DD, offset: 0x104DD, size: 0x8, addend: 0x0, symName: __ZNSt3__120__throw_length_errorB8ue170006EPKc, symObjAddr: 0x2638, symBinAddr: 0x1000072D4, symSize: 0x64 }
  - { offsetInCU: 0x10507, offset: 0x10507, size: 0x8, addend: 0x0, symName: __ZNSt3__117__libcpp_allocateB8ue170006Emm, symObjAddr: 0x27A8, symBinAddr: 0x100007444, symSize: 0x28 }
  - { offsetInCU: 0x10544, offset: 0x10544, size: 0x8, addend: 0x0, symName: __ZNSt3__121__libcpp_operator_newB8ue170006IJmEEEPvDpT_, symObjAddr: 0x27D0, symBinAddr: 0x10000746C, symSize: 0x24 }
  - { offsetInCU: 0x1057D, offset: 0x1057D, size: 0x8, addend: 0x0, symName: __ZNSt3__130__uninitialized_allocator_copyB8ue170006INS_9allocatorIN2cv3VecIiLi4EEEEEPS4_S6_S6_EET2_RT_T0_T1_S7_, symObjAddr: 0x2868, symBinAddr: 0x100007504, symSize: 0x80 }
  - { offsetInCU: 0x1061A, offset: 0x1061A, size: 0x8, addend: 0x0, symName: __ZNSt3__114__unwrap_rangeB8ue170006IPN2cv3VecIiLi4EEES4_EENS_4pairIT0_S6_EET_S8_, symObjAddr: 0x2958, symBinAddr: 0x1000075F4, symSize: 0x60 }
  - { offsetInCU: 0x10666, offset: 0x10666, size: 0x8, addend: 0x0, symName: __ZNSt3__135__uninitialized_allocator_copy_implB8ue170006INS_9allocatorIN2cv3VecIiLi4EEEEEPS4_S6_S6_EET2_RT_T0_T1_S7_, symObjAddr: 0x29B8, symBinAddr: 0x100007654, symSize: 0xF4 }
  - { offsetInCU: 0x10704, offset: 0x10704, size: 0x8, addend: 0x0, symName: __ZNSt3__113__unwrap_iterB8ue170006IPN2cv3VecIiLi4EEENS_18__unwrap_iter_implIS4_Lb1EEELi0EEEDTclsrT0_8__unwrapclsr3stdE7declvalIT_EEEES8_, symObjAddr: 0x2AAC, symBinAddr: 0x100007748, symSize: 0x24 }
  - { offsetInCU: 0x10748, offset: 0x10748, size: 0x8, addend: 0x0, symName: __ZNSt3__113__rewrap_iterB8ue170006IPN2cv3VecIiLi4EEES4_NS_18__unwrap_iter_implIS4_Lb1EEEEET_S7_T0_, symObjAddr: 0x2AD0, symBinAddr: 0x10000776C, symSize: 0x3C }
  - { offsetInCU: 0x1079D, offset: 0x1079D, size: 0x8, addend: 0x0, symName: __ZNSt3__19make_pairB8ue170006IPN2cv3VecIiLi4EEES4_EENS_4pairINS_18__unwrap_ref_decayIT_E4typeENS6_IT0_E4typeEEEOS7_OSA_, symObjAddr: 0x2B0C, symBinAddr: 0x1000077A8, symSize: 0x38 }
  - { offsetInCU: 0x108C0, offset: 0x108C0, size: 0x8, addend: 0x0, symName: __ZNSt3__122__make_exception_guardB8ue170006INS_29_AllocatorDestroyRangeReverseINS_9allocatorIN2cv3VecIiLi4EEEEEPS5_EEEENS_28__exception_guard_exceptionsIT_EESA_, symObjAddr: 0x2BB4, symBinAddr: 0x100007850, symSize: 0x4C }
  - { offsetInCU: 0x108F6, offset: 0x108F6, size: 0x8, addend: 0x0, symName: __ZNSt3__119__allocator_destroyB8ue170006INS_9allocatorIN2cv3VecIiLi4EEEEENS_16reverse_iteratorIPS4_EES8_EEvRT_T0_T1_, symObjAddr: 0x2F18, symBinAddr: 0x100007BB4, symSize: 0x70 }
  - { offsetInCU: 0x10959, offset: 0x10959, size: 0x8, addend: 0x0, symName: __ZNSt3__1neB8ue170006IPN2cv3VecIiLi4EEES4_EEbRKNS_16reverse_iteratorIT_EERKNS5_IT0_EE, symObjAddr: 0x2FBC, symBinAddr: 0x100007C58, symSize: 0x48 }
  - { offsetInCU: 0x109A5, offset: 0x109A5, size: 0x8, addend: 0x0, symName: __ZNSt3__112__to_addressB8ue170006INS_16reverse_iteratorIPN2cv3VecIiLi4EEEEEvEEu7__decayIDTclsr19__to_address_helperIT_EE6__callclsr3stdE7declvalIRKS7_EEEEES9_, symObjAddr: 0x3004, symBinAddr: 0x100007CA0, symSize: 0x24 }
  - { offsetInCU: 0x11130, offset: 0x11130, size: 0x8, addend: 0x0, symName: __ZSt28__throw_bad_array_new_lengthB8ue170006v, symObjAddr: 0x2774, symBinAddr: 0x100007410, symSize: 0x34 }
  - { offsetInCU: 0x17774, offset: 0x17774, size: 0x8, addend: 0x0, symName: __ZN2cvlsIiEERNSt3__113basic_ostreamIcNS1_11char_traitsIcEEEES6_RKNS_5Size_IT_EE, symObjAddr: 0xBC4, symBinAddr: 0x100005860, symSize: 0x60 }
  - { offsetInCU: 0x1B1ED, offset: 0x1B1ED, size: 0x8, addend: 0x0, symName: __Z9drawLinesN2cv3MatES0_S0_, symObjAddr: 0x0, symBinAddr: 0x100004C9C, symSize: 0x99C }
  - { offsetInCU: 0x1B275, offset: 0x1B275, size: 0x8, addend: 0x0, symName: __ZNSt3__16vectorIN2cv3VecIiLi4EEENS_9allocatorIS3_EEEC1B8ue170006Ev, symObjAddr: 0x99C, symBinAddr: 0x100005638, symSize: 0x2C }
  - { offsetInCU: 0x1B29F, offset: 0x1B29F, size: 0x8, addend: 0x0, symName: __ZNK2cv7MatSizeclEv, symObjAddr: 0x9C8, symBinAddr: 0x100005664, symSize: 0x3C }
  - { offsetInCU: 0x1B2C8, offset: 0x1B2C8, size: 0x8, addend: 0x0, symName: __ZNSt3__16vectorIN2cv3VecIiLi4EEENS_9allocatorIS3_EEEC1ERKS6_, symObjAddr: 0xA04, symBinAddr: 0x1000056A0, symSize: 0x34 }
  - { offsetInCU: 0x1B303, offset: 0x1B303, size: 0x8, addend: 0x0, symName: __ZNSt3__16vectorIN2cv3VecIiLi4EEENS_9allocatorIS3_EEED1B8ue170006Ev, symObjAddr: 0xA38, symBinAddr: 0x1000056D4, symSize: 0x2C }
  - { offsetInCU: 0x1B332, offset: 0x1B332, size: 0x8, addend: 0x0, symName: __ZNSt3__112basic_stringIcNS_11char_traitsIcEENS_9allocatorIcEEEC1B8ue170006ILi0EEEPKc, symObjAddr: 0xA64, symBinAddr: 0x100005700, symSize: 0x34 }
  - { offsetInCU: 0x1B371, offset: 0x1B371, size: 0x8, addend: 0x0, symName: __ZN2cv11_InputArrayC1ERKNS_3MatE, symObjAddr: 0xA98, symBinAddr: 0x100005734, symSize: 0x34 }
  - { offsetInCU: 0x1B3AB, offset: 0x1B3AB, size: 0x8, addend: 0x0, symName: __ZN2cv11_InputArrayD1Ev, symObjAddr: 0xACC, symBinAddr: 0x100005768, symSize: 0x2C }
  - { offsetInCU: 0x1B3D7, offset: 0x1B3D7, size: 0x8, addend: 0x0, symName: __ZNSt3__113basic_ostreamIcNS_11char_traitsIcEEElsB8ue170006EPFRS3_S4_E, symObjAddr: 0xB40, symBinAddr: 0x1000057DC, symSize: 0x2C }
  - { offsetInCU: 0x1B40B, offset: 0x1B40B, size: 0x8, addend: 0x0, symName: __ZN2cv5Size_IiEC1Eii, symObjAddr: 0xC24, symBinAddr: 0x1000058C0, symSize: 0x3C }
  - { offsetInCU: 0x1B455, offset: 0x1B455, size: 0x8, addend: 0x0, symName: __ZN2cv5Size_IiEC2Eii, symObjAddr: 0xC60, symBinAddr: 0x1000058FC, symSize: 0x2C }
  - { offsetInCU: 0x1B49F, offset: 0x1B49F, size: 0x8, addend: 0x0, symName: __ZN2cv11_InputArrayC2ERKNS_3MatE, symObjAddr: 0xC8C, symBinAddr: 0x100005928, symSize: 0x44 }
  - { offsetInCU: 0x1B4D9, offset: 0x1B4D9, size: 0x8, addend: 0x0, symName: __ZN2cv5Size_IiEC1Ev, symObjAddr: 0xCD0, symBinAddr: 0x10000596C, symSize: 0x2C }
  - { offsetInCU: 0x1B505, offset: 0x1B505, size: 0x8, addend: 0x0, symName: __ZN2cv11_InputArray4initEiPKv, symObjAddr: 0xCFC, symBinAddr: 0x100005998, symSize: 0x2C }
  - { offsetInCU: 0x1B549, offset: 0x1B549, size: 0x8, addend: 0x0, symName: __ZN2cv5Size_IiEC2Ev, symObjAddr: 0xD28, symBinAddr: 0x1000059C4, symSize: 0x1C }
  - { offsetInCU: 0x1B575, offset: 0x1B575, size: 0x8, addend: 0x0, symName: __ZN2cv11_InputArrayD2Ev, symObjAddr: 0xD44, symBinAddr: 0x1000059E0, symSize: 0x14 }
  - { offsetInCU: 0x1B5A1, offset: 0x1B5A1, size: 0x8, addend: 0x0, symName: __ZNSt3__112basic_stringIcNS_11char_traitsIcEENS_9allocatorIcEEEC2B8ue170006ILi0EEEPKc, symObjAddr: 0xD58, symBinAddr: 0x1000059F4, symSize: 0x58 }
  - { offsetInCU: 0x1B5E5, offset: 0x1B5E5, size: 0x8, addend: 0x0, symName: __ZNSt3__117__compressed_pairINS_12basic_stringIcNS_11char_traitsIcEENS_9allocatorIcEEE5__repES5_EC1B8ue170006INS_18__default_init_tagESA_EEOT_OT0_, symObjAddr: 0xDB0, symBinAddr: 0x100005A4C, symSize: 0x3C }
  - { offsetInCU: 0x1B63D, offset: 0x1B63D, size: 0x8, addend: 0x0, symName: __ZNSt3__111char_traitsIcE6lengthB8ue170006EPKc, symObjAddr: 0xDEC, symBinAddr: 0x100005A88, symSize: 0x34 }
  - { offsetInCU: 0x1B660, offset: 0x1B660, size: 0x8, addend: 0x0, symName: __ZNSt3__117__compressed_pairINS_12basic_stringIcNS_11char_traitsIcEENS_9allocatorIcEEE5__repES5_EC2B8ue170006INS_18__default_init_tagESA_EEOT_OT0_, symObjAddr: 0xE20, symBinAddr: 0x100005ABC, symSize: 0x3C }
  - { offsetInCU: 0x1B6B8, offset: 0x1B6B8, size: 0x8, addend: 0x0, symName: __ZNSt3__122__compressed_pair_elemINS_12basic_stringIcNS_11char_traitsIcEENS_9allocatorIcEEE5__repELi0ELb0EEC2B8ue170006ENS_18__default_init_tagE, symObjAddr: 0xE5C, symBinAddr: 0x100005AF8, symSize: 0x14 }
  - { offsetInCU: 0x1B6ED, offset: 0x1B6ED, size: 0x8, addend: 0x0, symName: __ZNSt3__122__compressed_pair_elemINS_9allocatorIcEELi1ELb1EEC2B8ue170006ENS_18__default_init_tagE, symObjAddr: 0xE70, symBinAddr: 0x100005B0C, symSize: 0x2C }
  - { offsetInCU: 0x1B722, offset: 0x1B722, size: 0x8, addend: 0x0, symName: __ZNSt3__19allocatorIcEC2B8ue170006Ev, symObjAddr: 0xE9C, symBinAddr: 0x100005B38, symSize: 0x2C }
  - { offsetInCU: 0x1B74C, offset: 0x1B74C, size: 0x8, addend: 0x0, symName: __ZNSt3__116__non_trivial_ifILb1ENS_9allocatorIcEEEC2B8ue170006Ev, symObjAddr: 0xEC8, symBinAddr: 0x100005B64, symSize: 0x14 }
  - { offsetInCU: 0x1B794, offset: 0x1B794, size: 0x8, addend: 0x0, symName: __ZNKSt3__113basic_ostreamIcNS_11char_traitsIcEEE6sentrycvbB8ue170006Ev, symObjAddr: 0x10F8, symBinAddr: 0x100005D94, symSize: 0x1C }
  - { offsetInCU: 0x1B7BA, offset: 0x1B7BA, size: 0x8, addend: 0x0, symName: __ZNSt3__119ostreambuf_iteratorIcNS_11char_traitsIcEEEC1B8ue170006ERNS_13basic_ostreamIcS2_EE, symObjAddr: 0x1354, symBinAddr: 0x100005FF0, symSize: 0x34 }
  - { offsetInCU: 0x1B7F2, offset: 0x1B7F2, size: 0x8, addend: 0x0, symName: __ZNKSt3__18ios_base5flagsB8ue170006Ev, symObjAddr: 0x1388, symBinAddr: 0x100006024, symSize: 0x18 }
  - { offsetInCU: 0x1B81A, offset: 0x1B81A, size: 0x8, addend: 0x0, symName: __ZNKSt3__19basic_iosIcNS_11char_traitsIcEEE4fillB8ue170006Ev, symObjAddr: 0x13A0, symBinAddr: 0x10000603C, symSize: 0x64 }
  - { offsetInCU: 0x1B842, offset: 0x1B842, size: 0x8, addend: 0x0, symName: __ZNKSt3__119ostreambuf_iteratorIcNS_11char_traitsIcEEE6failedB8ue170006Ev, symObjAddr: 0x1404, symBinAddr: 0x1000060A0, symSize: 0x24 }
  - { offsetInCU: 0x1B868, offset: 0x1B868, size: 0x8, addend: 0x0, symName: __ZNSt3__19basic_iosIcNS_11char_traitsIcEEE8setstateB8ue170006Ej, symObjAddr: 0x1428, symBinAddr: 0x1000060C4, symSize: 0x2C }
  - { offsetInCU: 0x1B89D, offset: 0x1B89D, size: 0x8, addend: 0x0, symName: __ZNKSt3__18ios_base5widthB8ue170006Ev, symObjAddr: 0x1454, symBinAddr: 0x1000060F0, symSize: 0x18 }
  - { offsetInCU: 0x1B8C5, offset: 0x1B8C5, size: 0x8, addend: 0x0, symName: __ZNSt3__115basic_streambufIcNS_11char_traitsIcEEE5sputnB8ue170006EPKcl, symObjAddr: 0x146C, symBinAddr: 0x100006108, symSize: 0x3C }
  - { offsetInCU: 0x1B907, offset: 0x1B907, size: 0x8, addend: 0x0, symName: __ZNSt3__112basic_stringIcNS_11char_traitsIcEENS_9allocatorIcEEEC1B8ue170006Emc, symObjAddr: 0x14A8, symBinAddr: 0x100006144, symSize: 0x3C }
  - { offsetInCU: 0x1B94F, offset: 0x1B94F, size: 0x8, addend: 0x0, symName: __ZNKSt3__112basic_stringIcNS_11char_traitsIcEENS_9allocatorIcEEE4dataB8ue170006Ev, symObjAddr: 0x14E4, symBinAddr: 0x100006180, symSize: 0x28 }
  - { offsetInCU: 0x1B975, offset: 0x1B975, size: 0x8, addend: 0x0, symName: __ZNSt3__18ios_base5widthB8ue170006El, symObjAddr: 0x150C, symBinAddr: 0x1000061A8, symSize: 0x2C }
  - { offsetInCU: 0x1B9BB, offset: 0x1B9BB, size: 0x8, addend: 0x0, symName: __ZNSt3__112basic_stringIcNS_11char_traitsIcEENS_9allocatorIcEEEC2B8ue170006Emc, symObjAddr: 0x1538, symBinAddr: 0x1000061D4, symSize: 0x4C }
  - { offsetInCU: 0x1BA03, offset: 0x1BA03, size: 0x8, addend: 0x0, symName: __ZNKSt3__112basic_stringIcNS_11char_traitsIcEENS_9allocatorIcEEE13__get_pointerB8ue170006Ev, symObjAddr: 0x1598, symBinAddr: 0x100006234, symSize: 0x54 }
  - { offsetInCU: 0x1BA29, offset: 0x1BA29, size: 0x8, addend: 0x0, symName: __ZNKSt3__112basic_stringIcNS_11char_traitsIcEENS_9allocatorIcEEE9__is_longB8ue170006Ev, symObjAddr: 0x15EC, symBinAddr: 0x100006288, symSize: 0x38 }
  - { offsetInCU: 0x1BA4F, offset: 0x1BA4F, size: 0x8, addend: 0x0, symName: __ZNKSt3__112basic_stringIcNS_11char_traitsIcEENS_9allocatorIcEEE18__get_long_pointerB8ue170006Ev, symObjAddr: 0x1624, symBinAddr: 0x1000062C0, symSize: 0x28 }
  - { offsetInCU: 0x1BA75, offset: 0x1BA75, size: 0x8, addend: 0x0, symName: __ZNKSt3__112basic_stringIcNS_11char_traitsIcEENS_9allocatorIcEEE19__get_short_pointerB8ue170006Ev, symObjAddr: 0x164C, symBinAddr: 0x1000062E8, symSize: 0x28 }
  - { offsetInCU: 0x1BA9B, offset: 0x1BA9B, size: 0x8, addend: 0x0, symName: __ZNKSt3__117__compressed_pairINS_12basic_stringIcNS_11char_traitsIcEENS_9allocatorIcEEE5__repES5_E5firstB8ue170006Ev, symObjAddr: 0x1674, symBinAddr: 0x100006310, symSize: 0x24 }
  - { offsetInCU: 0x1BAC1, offset: 0x1BAC1, size: 0x8, addend: 0x0, symName: __ZNKSt3__122__compressed_pair_elemINS_12basic_stringIcNS_11char_traitsIcEENS_9allocatorIcEEE5__repELi0ELb0EE5__getB8ue170006Ev, symObjAddr: 0x1698, symBinAddr: 0x100006334, symSize: 0x14 }
  - { offsetInCU: 0x1BAE7, offset: 0x1BAE7, size: 0x8, addend: 0x0, symName: __ZNSt3__114pointer_traitsIPKcE10pointer_toB8ue170006ERS1_, symObjAddr: 0x16AC, symBinAddr: 0x100006348, symSize: 0x14 }
  - { offsetInCU: 0x1BB0A, offset: 0x1BB0A, size: 0x8, addend: 0x0, symName: __ZNSt3__119ostreambuf_iteratorIcNS_11char_traitsIcEEEC2B8ue170006ERNS_13basic_ostreamIcS2_EE, symObjAddr: 0x16C0, symBinAddr: 0x10000635C, symSize: 0x54 }
  - { offsetInCU: 0x1BB42, offset: 0x1BB42, size: 0x8, addend: 0x0, symName: __ZNKSt3__19basic_iosIcNS_11char_traitsIcEEE5rdbufB8ue170006Ev, symObjAddr: 0x1714, symBinAddr: 0x1000063B0, symSize: 0x24 }
  - { offsetInCU: 0x1BB6A, offset: 0x1BB6A, size: 0x8, addend: 0x0, symName: __ZNKSt3__18ios_base5rdbufB8ue170006Ev, symObjAddr: 0x1738, symBinAddr: 0x1000063D4, symSize: 0x18 }
  - { offsetInCU: 0x1BB90, offset: 0x1BB90, size: 0x8, addend: 0x0, symName: __ZNSt3__111char_traitsIcE11eq_int_typeB8ue170006Eii, symObjAddr: 0x1750, symBinAddr: 0x1000063EC, symSize: 0x28 }
  - { offsetInCU: 0x1BBC3, offset: 0x1BBC3, size: 0x8, addend: 0x0, symName: __ZNSt3__111char_traitsIcE3eofB8ue170006Ev, symObjAddr: 0x1778, symBinAddr: 0x100006414, symSize: 0x8 }
  - { offsetInCU: 0x1BBD7, offset: 0x1BBD7, size: 0x8, addend: 0x0, symName: __ZNKSt3__19basic_iosIcNS_11char_traitsIcEEE5widenB8ue170006Ec, symObjAddr: 0x1780, symBinAddr: 0x10000641C, symSize: 0x84 }
  - { offsetInCU: 0x1BC40, offset: 0x1BC40, size: 0x8, addend: 0x0, symName: __ZNKSt3__15ctypeIcE5widenB8ue170006Ec, symObjAddr: 0x1830, symBinAddr: 0x1000064CC, symSize: 0x38 }
  - { offsetInCU: 0x1BC75, offset: 0x1BC75, size: 0x8, addend: 0x0, symName: __ZNSt3__18ios_base8setstateB8ue170006Ej, symObjAddr: 0x1868, symBinAddr: 0x100006504, symSize: 0x34 }
  - { offsetInCU: 0x1BCAC, offset: 0x1BCAC, size: 0x8, addend: 0x0, symName: __ZNSt3__16vectorIN2cv3VecIiLi4EEENS_9allocatorIS3_EEEC2B8ue170006Ev, symObjAddr: 0x189C, symBinAddr: 0x100006538, symSize: 0x4C }
  - { offsetInCU: 0x1BCDB, offset: 0x1BCDB, size: 0x8, addend: 0x0, symName: __ZNSt3__117__compressed_pairIPN2cv3VecIiLi4EEENS_9allocatorIS3_EEEC1B8ue170006IDnNS_18__default_init_tagEEEOT_OT0_, symObjAddr: 0x18E8, symBinAddr: 0x100006584, symSize: 0x3C }
  - { offsetInCU: 0x1BD33, offset: 0x1BD33, size: 0x8, addend: 0x0, symName: __ZNSt3__117__compressed_pairIPN2cv3VecIiLi4EEENS_9allocatorIS3_EEEC2B8ue170006IDnNS_18__default_init_tagEEEOT_OT0_, symObjAddr: 0x1924, symBinAddr: 0x1000065C0, symSize: 0x40 }
  - { offsetInCU: 0x1BD8B, offset: 0x1BD8B, size: 0x8, addend: 0x0, symName: __ZNSt3__122__compressed_pair_elemIPN2cv3VecIiLi4EEELi0ELb0EEC2B8ue170006IDnvEEOT_, symObjAddr: 0x1964, symBinAddr: 0x100006600, symSize: 0x1C }
  - { offsetInCU: 0x1BDCD, offset: 0x1BDCD, size: 0x8, addend: 0x0, symName: __ZNSt3__122__compressed_pair_elemINS_9allocatorIN2cv3VecIiLi4EEEEELi1ELb1EEC2B8ue170006ENS_18__default_init_tagE, symObjAddr: 0x1980, symBinAddr: 0x10000661C, symSize: 0x2C }
  - { offsetInCU: 0x1BE02, offset: 0x1BE02, size: 0x8, addend: 0x0, symName: __ZNSt3__19allocatorIN2cv3VecIiLi4EEEEC2B8ue170006Ev, symObjAddr: 0x19AC, symBinAddr: 0x100006648, symSize: 0x2C }
  - { offsetInCU: 0x1BE2C, offset: 0x1BE2C, size: 0x8, addend: 0x0, symName: __ZNSt3__116__non_trivial_ifILb1ENS_9allocatorIN2cv3VecIiLi4EEEEEEC2B8ue170006Ev, symObjAddr: 0x19D8, symBinAddr: 0x100006674, symSize: 0x14 }
  - { offsetInCU: 0x1BE56, offset: 0x1BE56, size: 0x8, addend: 0x0, symName: __ZNSt3__16vectorIN2cv3VecIiLi4EEENS_9allocatorIS3_EEED2B8ue170006Ev, symObjAddr: 0x19EC, symBinAddr: 0x100006688, symSize: 0x44 }
  - { offsetInCU: 0x1BE80, offset: 0x1BE80, size: 0x8, addend: 0x0, symName: __ZNSt3__16vectorIN2cv3VecIiLi4EEENS_9allocatorIS3_EEE16__destroy_vectorC1B8ue170006ERS6_, symObjAddr: 0x1A30, symBinAddr: 0x1000066CC, symSize: 0x34 }
  - { offsetInCU: 0x1BEB9, offset: 0x1BEB9, size: 0x8, addend: 0x0, symName: __ZNSt3__16vectorIN2cv3VecIiLi4EEENS_9allocatorIS3_EEE16__destroy_vectorclB8ue170006Ev, symObjAddr: 0x1A64, symBinAddr: 0x100006700, symSize: 0x90 }
  - { offsetInCU: 0x1BEDF, offset: 0x1BEDF, size: 0x8, addend: 0x0, symName: __ZNSt3__16vectorIN2cv3VecIiLi4EEENS_9allocatorIS3_EEE16__destroy_vectorC2B8ue170006ERS6_, symObjAddr: 0x1AF4, symBinAddr: 0x100006790, symSize: 0x20 }
  - { offsetInCU: 0x1BF18, offset: 0x1BF18, size: 0x8, addend: 0x0, symName: __ZNSt3__16vectorIN2cv3VecIiLi4EEENS_9allocatorIS3_EEE7__clearB8ue170006Ev, symObjAddr: 0x1B14, symBinAddr: 0x1000067B0, symSize: 0x28 }
  - { offsetInCU: 0x1BF3E, offset: 0x1BF3E, size: 0x8, addend: 0x0, symName: __ZNKSt3__16vectorIN2cv3VecIiLi4EEENS_9allocatorIS3_EEE17__annotate_deleteB8ue170006Ev, symObjAddr: 0x1B3C, symBinAddr: 0x1000067D8, symSize: 0xB8 }
  - { offsetInCU: 0x1BF64, offset: 0x1BF64, size: 0x8, addend: 0x0, symName: __ZNSt3__116allocator_traitsINS_9allocatorIN2cv3VecIiLi4EEEEEE10deallocateB8ue170006ERS5_PS4_m, symObjAddr: 0x1BF4, symBinAddr: 0x100006890, symSize: 0x34 }
  - { offsetInCU: 0x1BFA6, offset: 0x1BFA6, size: 0x8, addend: 0x0, symName: __ZNSt3__16vectorIN2cv3VecIiLi4EEENS_9allocatorIS3_EEE7__allocB8ue170006Ev, symObjAddr: 0x1C28, symBinAddr: 0x1000068C4, symSize: 0x28 }
  - { offsetInCU: 0x1BFCC, offset: 0x1BFCC, size: 0x8, addend: 0x0, symName: __ZNKSt3__16vectorIN2cv3VecIiLi4EEENS_9allocatorIS3_EEE8capacityB8ue170006Ev, symObjAddr: 0x1C50, symBinAddr: 0x1000068EC, symSize: 0x40 }
  - { offsetInCU: 0x1BFF2, offset: 0x1BFF2, size: 0x8, addend: 0x0, symName: __ZNSt3__16vectorIN2cv3VecIiLi4EEENS_9allocatorIS3_EEE22__base_destruct_at_endB8ue170006EPS3_, symObjAddr: 0x1C90, symBinAddr: 0x10000692C, symSize: 0x8C }
  - { offsetInCU: 0x1C036, offset: 0x1C036, size: 0x8, addend: 0x0, symName: __ZNSt3__116allocator_traitsINS_9allocatorIN2cv3VecIiLi4EEEEEE7destroyB8ue170006IS4_vEEvRS5_PT_, symObjAddr: 0x1D1C, symBinAddr: 0x1000069B8, symSize: 0x2C }
  - { offsetInCU: 0x1C073, offset: 0x1C073, size: 0x8, addend: 0x0, symName: __ZNSt3__19allocatorIN2cv3VecIiLi4EEEE7destroyB8ue170006EPS3_, symObjAddr: 0x1D5C, symBinAddr: 0x1000069F8, symSize: 0x14 }
  - { offsetInCU: 0x1C0A7, offset: 0x1C0A7, size: 0x8, addend: 0x0, symName: __ZNKSt3__16vectorIN2cv3VecIiLi4EEENS_9allocatorIS3_EEE31__annotate_contiguous_containerB8ue170006EPKvS8_S8_S8_, symObjAddr: 0x1D70, symBinAddr: 0x100006A0C, symSize: 0x20 }
  - { offsetInCU: 0x1C0FD, offset: 0x1C0FD, size: 0x8, addend: 0x0, symName: __ZNKSt3__16vectorIN2cv3VecIiLi4EEENS_9allocatorIS3_EEE4dataB8ue170006Ev, symObjAddr: 0x1D90, symBinAddr: 0x100006A2C, symSize: 0x28 }
  - { offsetInCU: 0x1C123, offset: 0x1C123, size: 0x8, addend: 0x0, symName: __ZNKSt3__16vectorIN2cv3VecIiLi4EEENS_9allocatorIS3_EEE4sizeB8ue170006Ev, symObjAddr: 0x1DB8, symBinAddr: 0x100006A54, symSize: 0x28 }
  - { offsetInCU: 0x1C149, offset: 0x1C149, size: 0x8, addend: 0x0, symName: __ZNSt3__19allocatorIN2cv3VecIiLi4EEEE10deallocateB8ue170006EPS3_m, symObjAddr: 0x1DE0, symBinAddr: 0x100006A7C, symSize: 0x40 }
  - { offsetInCU: 0x1C18B, offset: 0x1C18B, size: 0x8, addend: 0x0, symName: __ZNSt3__117__compressed_pairIPN2cv3VecIiLi4EEENS_9allocatorIS3_EEE6secondB8ue170006Ev, symObjAddr: 0x1E9C, symBinAddr: 0x100006B38, symSize: 0x24 }
  - { offsetInCU: 0x1C1B1, offset: 0x1C1B1, size: 0x8, addend: 0x0, symName: __ZNSt3__122__compressed_pair_elemINS_9allocatorIN2cv3VecIiLi4EEEEELi1ELb1EE5__getB8ue170006Ev, symObjAddr: 0x1EC0, symBinAddr: 0x100006B5C, symSize: 0x14 }
  - { offsetInCU: 0x1C1D7, offset: 0x1C1D7, size: 0x8, addend: 0x0, symName: __ZNKSt3__16vectorIN2cv3VecIiLi4EEENS_9allocatorIS3_EEE9__end_capB8ue170006Ev, symObjAddr: 0x1ED4, symBinAddr: 0x100006B70, symSize: 0x28 }
  - { offsetInCU: 0x1C1FD, offset: 0x1C1FD, size: 0x8, addend: 0x0, symName: __ZNKSt3__117__compressed_pairIPN2cv3VecIiLi4EEENS_9allocatorIS3_EEE5firstB8ue170006Ev, symObjAddr: 0x1EFC, symBinAddr: 0x100006B98, symSize: 0x24 }
  - { offsetInCU: 0x1C223, offset: 0x1C223, size: 0x8, addend: 0x0, symName: __ZNKSt3__122__compressed_pair_elemIPN2cv3VecIiLi4EEELi0ELb0EE5__getB8ue170006Ev, symObjAddr: 0x1F20, symBinAddr: 0x100006BBC, symSize: 0x14 }
  - { offsetInCU: 0x1C249, offset: 0x1C249, size: 0x8, addend: 0x0, symName: __ZNSt3__16vectorIN2cv3VecIiLi4EEENS_9allocatorIS3_EEEC2ERKS6_, symObjAddr: 0x1F34, symBinAddr: 0x100006BD0, symSize: 0x94 }
  - { offsetInCU: 0x1C28E, offset: 0x1C28E, size: 0x8, addend: 0x0, symName: __ZNSt3__116allocator_traitsINS_9allocatorIN2cv3VecIiLi4EEEEEE37select_on_container_copy_constructionB8ue170006IS5_vvEES5_RKS5_, symObjAddr: 0x1FC8, symBinAddr: 0x100006C64, symSize: 0x10 }
  - { offsetInCU: 0x1C2BD, offset: 0x1C2BD, size: 0x8, addend: 0x0, symName: __ZNKSt3__16vectorIN2cv3VecIiLi4EEENS_9allocatorIS3_EEE7__allocB8ue170006Ev, symObjAddr: 0x1FD8, symBinAddr: 0x100006C74, symSize: 0x28 }
  - { offsetInCU: 0x1C2E8, offset: 0x1C2E8, size: 0x8, addend: 0x0, symName: __ZNSt3__117__compressed_pairIPN2cv3VecIiLi4EEENS_9allocatorIS3_EEEC1B8ue170006IDnS6_EEOT_OT0_, symObjAddr: 0x2000, symBinAddr: 0x100006C9C, symSize: 0x3C }
  - { offsetInCU: 0x1C340, offset: 0x1C340, size: 0x8, addend: 0x0, symName: __ZNSt3__16vectorIN2cv3VecIiLi4EEENS_9allocatorIS3_EEE16__init_with_sizeB8ue170006IPS3_S8_EEvT_T0_m, symObjAddr: 0x203C, symBinAddr: 0x100006CD8, symSize: 0xB8 }
  - { offsetInCU: 0x1C3B4, offset: 0x1C3B4, size: 0x8, addend: 0x0, symName: __ZNKSt3__117__compressed_pairIPN2cv3VecIiLi4EEENS_9allocatorIS3_EEE6secondB8ue170006Ev, symObjAddr: 0x20F4, symBinAddr: 0x100006D90, symSize: 0x24 }
  - { offsetInCU: 0x1C3DA, offset: 0x1C3DA, size: 0x8, addend: 0x0, symName: __ZNKSt3__122__compressed_pair_elemINS_9allocatorIN2cv3VecIiLi4EEEEELi1ELb1EE5__getB8ue170006Ev, symObjAddr: 0x2118, symBinAddr: 0x100006DB4, symSize: 0x14 }
  - { offsetInCU: 0x1C400, offset: 0x1C400, size: 0x8, addend: 0x0, symName: __ZNSt3__117__compressed_pairIPN2cv3VecIiLi4EEENS_9allocatorIS3_EEEC2B8ue170006IDnS6_EEOT_OT0_, symObjAddr: 0x212C, symBinAddr: 0x100006DC8, symSize: 0x44 }
  - { offsetInCU: 0x1C458, offset: 0x1C458, size: 0x8, addend: 0x0, symName: __ZNSt3__122__compressed_pair_elemINS_9allocatorIN2cv3VecIiLi4EEEEELi1ELb1EEC2B8ue170006IS5_vEEOT_, symObjAddr: 0x2170, symBinAddr: 0x100006E0C, symSize: 0x18 }
  - { offsetInCU: 0x1C49A, offset: 0x1C49A, size: 0x8, addend: 0x0, symName: __ZNSt3__16vectorIN2cv3VecIiLi4EEENS_9allocatorIS3_EEE11__vallocateB8ue170006Em, symObjAddr: 0x21C8, symBinAddr: 0x100006E64, symSize: 0xAC }
  - { offsetInCU: 0x1C4DE, offset: 0x1C4DE, size: 0x8, addend: 0x0, symName: __ZNSt3__16vectorIN2cv3VecIiLi4EEENS_9allocatorIS3_EEE18__construct_at_endIPS3_S8_EEvT_T0_m, symObjAddr: 0x2274, symBinAddr: 0x100006F10, symSize: 0x8C }
  - { offsetInCU: 0x1C554, offset: 0x1C554, size: 0x8, addend: 0x0, symName: __ZNSt3__128__exception_guard_exceptionsINS_6vectorIN2cv3VecIiLi4EEENS_9allocatorIS4_EEE16__destroy_vectorEE10__completeB8ue170006Ev, symObjAddr: 0x2300, symBinAddr: 0x100006F9C, symSize: 0x1C }
  - { offsetInCU: 0x1C57A, offset: 0x1C57A, size: 0x8, addend: 0x0, symName: __ZNSt3__128__exception_guard_exceptionsINS_6vectorIN2cv3VecIiLi4EEENS_9allocatorIS4_EEE16__destroy_vectorEED1B8ue170006Ev, symObjAddr: 0x231C, symBinAddr: 0x100006FB8, symSize: 0x2C }
  - { offsetInCU: 0x1C5A4, offset: 0x1C5A4, size: 0x8, addend: 0x0, symName: __ZNSt3__128__exception_guard_exceptionsINS_6vectorIN2cv3VecIiLi4EEENS_9allocatorIS4_EEE16__destroy_vectorEEC1B8ue170006ES8_, symObjAddr: 0x2348, symBinAddr: 0x100006FE4, symSize: 0x34 }
  - { offsetInCU: 0x1C5DC, offset: 0x1C5DC, size: 0x8, addend: 0x0, symName: __ZNSt3__128__exception_guard_exceptionsINS_6vectorIN2cv3VecIiLi4EEENS_9allocatorIS4_EEE16__destroy_vectorEEC2B8ue170006ES8_, symObjAddr: 0x237C, symBinAddr: 0x100007018, symSize: 0x24 }
  - { offsetInCU: 0x1C614, offset: 0x1C614, size: 0x8, addend: 0x0, symName: __ZNKSt3__16vectorIN2cv3VecIiLi4EEENS_9allocatorIS3_EEE8max_sizeEv, symObjAddr: 0x23A0, symBinAddr: 0x10000703C, symSize: 0x60 }
  - { offsetInCU: 0x1C63C, offset: 0x1C63C, size: 0x8, addend: 0x0, symName: __ZNKSt3__16vectorIN2cv3VecIiLi4EEENS_9allocatorIS3_EEE20__throw_length_errorB8ue170006Ev, symObjAddr: 0x2400, symBinAddr: 0x10000709C, symSize: 0x1C }
  - { offsetInCU: 0x1C662, offset: 0x1C662, size: 0x8, addend: 0x0, symName: __ZNSt3__16vectorIN2cv3VecIiLi4EEENS_9allocatorIS3_EEE9__end_capB8ue170006Ev, symObjAddr: 0x245C, symBinAddr: 0x1000070F8, symSize: 0x28 }
  - { offsetInCU: 0x1C688, offset: 0x1C688, size: 0x8, addend: 0x0, symName: __ZNKSt3__16vectorIN2cv3VecIiLi4EEENS_9allocatorIS3_EEE14__annotate_newB8ue170006Em, symObjAddr: 0x2484, symBinAddr: 0x100007120, symSize: 0xAC }
  - { offsetInCU: 0x1C6BD, offset: 0x1C6BD, size: 0x8, addend: 0x0, symName: __ZNSt3__116allocator_traitsINS_9allocatorIN2cv3VecIiLi4EEEEEE8max_sizeB8ue170006IS5_vEEmRKS5_, symObjAddr: 0x255C, symBinAddr: 0x1000071F8, symSize: 0x24 }
  - { offsetInCU: 0x1C6EB, offset: 0x1C6EB, size: 0x8, addend: 0x0, symName: __ZNSt3__114numeric_limitsIlE3maxB8ue170006Ev, symObjAddr: 0x2580, symBinAddr: 0x10000721C, symSize: 0x14 }
  - { offsetInCU: 0x1C709, offset: 0x1C709, size: 0x8, addend: 0x0, symName: __ZNKSt3__16__lessIvvEclB8ue170006ImmEEbRKT_RKT0_, symObjAddr: 0x25E8, symBinAddr: 0x100007284, symSize: 0x34 }
  - { offsetInCU: 0x1C75D, offset: 0x1C75D, size: 0x8, addend: 0x0, symName: __ZNKSt3__19allocatorIN2cv3VecIiLi4EEEE8max_sizeB8ue170006Ev, symObjAddr: 0x261C, symBinAddr: 0x1000072B8, symSize: 0x14 }
  - { offsetInCU: 0x1C783, offset: 0x1C783, size: 0x8, addend: 0x0, symName: __ZNSt3__123__libcpp_numeric_limitsIlLb1EE3maxB8ue170006Ev, symObjAddr: 0x2630, symBinAddr: 0x1000072CC, symSize: 0x8 }
  - { offsetInCU: 0x1C797, offset: 0x1C797, size: 0x8, addend: 0x0, symName: __ZNSt12length_errorC1B8ue170006EPKc, symObjAddr: 0x269C, symBinAddr: 0x100007338, symSize: 0x34 }
  - { offsetInCU: 0x1C7CF, offset: 0x1C7CF, size: 0x8, addend: 0x0, symName: __ZNSt12length_errorC2B8ue170006EPKc, symObjAddr: 0x26D0, symBinAddr: 0x10000736C, symSize: 0x4C }
  - { offsetInCU: 0x1C807, offset: 0x1C807, size: 0x8, addend: 0x0, symName: __ZNSt3__19allocatorIN2cv3VecIiLi4EEEE8allocateB8ue170006Em, symObjAddr: 0x271C, symBinAddr: 0x1000073B8, symSize: 0x58 }
  - { offsetInCU: 0x1C83B, offset: 0x1C83B, size: 0x8, addend: 0x0, symName: __ZNSt3__117__compressed_pairIPN2cv3VecIiLi4EEENS_9allocatorIS3_EEE5firstB8ue170006Ev, symObjAddr: 0x27F4, symBinAddr: 0x100007490, symSize: 0x24 }
  - { offsetInCU: 0x1C861, offset: 0x1C861, size: 0x8, addend: 0x0, symName: __ZNSt3__122__compressed_pair_elemIPN2cv3VecIiLi4EEELi0ELb0EE5__getB8ue170006Ev, symObjAddr: 0x2818, symBinAddr: 0x1000074B4, symSize: 0x14 }
  - { offsetInCU: 0x1C8A0, offset: 0x1C8A0, size: 0x8, addend: 0x0, symName: __ZNSt3__16vectorIN2cv3VecIiLi4EEENS_9allocatorIS3_EEE21_ConstructTransactionC1B8ue170006ERS6_m, symObjAddr: 0x282C, symBinAddr: 0x1000074C8, symSize: 0x3C }
  - { offsetInCU: 0x1C8E8, offset: 0x1C8E8, size: 0x8, addend: 0x0, symName: __ZNSt3__16vectorIN2cv3VecIiLi4EEENS_9allocatorIS3_EEE21_ConstructTransactionD1B8ue170006Ev, symObjAddr: 0x28E8, symBinAddr: 0x100007584, symSize: 0x2C }
  - { offsetInCU: 0x1C912, offset: 0x1C912, size: 0x8, addend: 0x0, symName: __ZNSt3__16vectorIN2cv3VecIiLi4EEENS_9allocatorIS3_EEE21_ConstructTransactionC2B8ue170006ERS6_m, symObjAddr: 0x2914, symBinAddr: 0x1000075B0, symSize: 0x44 }
  - { offsetInCU: 0x1C978, offset: 0x1C978, size: 0x8, addend: 0x0, symName: __ZNSt3__14pairIPN2cv3VecIiLi4EEES4_EC1B8ue170006IS4_S4_LPv0EEEOT_OT0_, symObjAddr: 0x2B44, symBinAddr: 0x1000077E0, symSize: 0x3C }
  - { offsetInCU: 0x1C9D6, offset: 0x1C9D6, size: 0x8, addend: 0x0, symName: __ZNSt3__14pairIPN2cv3VecIiLi4EEES4_EC2B8ue170006IS4_S4_LPv0EEEOT_OT0_, symObjAddr: 0x2B80, symBinAddr: 0x10000781C, symSize: 0x34 }
  - { offsetInCU: 0x1CA34, offset: 0x1CA34, size: 0x8, addend: 0x0, symName: __ZNSt3__129_AllocatorDestroyRangeReverseINS_9allocatorIN2cv3VecIiLi4EEEEEPS4_EC1B8ue170006ERS5_RS6_S9_, symObjAddr: 0x2C00, symBinAddr: 0x10000789C, symSize: 0x44 }
  - { offsetInCU: 0x1CA8B, offset: 0x1CA8B, size: 0x8, addend: 0x0, symName: __ZNSt3__116allocator_traitsINS_9allocatorIN2cv3VecIiLi4EEEEEE9constructB8ue170006IS4_JRS4_EvEEvRS5_PT_DpOT0_, symObjAddr: 0x2C44, symBinAddr: 0x1000078E0, symSize: 0x34 }
  - { offsetInCU: 0x1CAE2, offset: 0x1CAE2, size: 0x8, addend: 0x0, symName: __ZNSt3__128__exception_guard_exceptionsINS_29_AllocatorDestroyRangeReverseINS_9allocatorIN2cv3VecIiLi4EEEEEPS5_EEE10__completeB8ue170006Ev, symObjAddr: 0x2C78, symBinAddr: 0x100007914, symSize: 0x1C }
  - { offsetInCU: 0x1CB08, offset: 0x1CB08, size: 0x8, addend: 0x0, symName: __ZNSt3__128__exception_guard_exceptionsINS_29_AllocatorDestroyRangeReverseINS_9allocatorIN2cv3VecIiLi4EEEEEPS5_EEED1B8ue170006Ev, symObjAddr: 0x2C94, symBinAddr: 0x100007930, symSize: 0x2C }
  - { offsetInCU: 0x1CB32, offset: 0x1CB32, size: 0x8, addend: 0x0, symName: __ZNSt3__128__exception_guard_exceptionsINS_29_AllocatorDestroyRangeReverseINS_9allocatorIN2cv3VecIiLi4EEEEEPS5_EEEC1B8ue170006ES8_, symObjAddr: 0x2CC0, symBinAddr: 0x10000795C, symSize: 0x34 }
  - { offsetInCU: 0x1CB6B, offset: 0x1CB6B, size: 0x8, addend: 0x0, symName: __ZNSt3__128__exception_guard_exceptionsINS_29_AllocatorDestroyRangeReverseINS_9allocatorIN2cv3VecIiLi4EEEEEPS5_EEEC2B8ue170006ES8_, symObjAddr: 0x2CF4, symBinAddr: 0x100007990, symSize: 0x30 }
  - { offsetInCU: 0x1CBA4, offset: 0x1CBA4, size: 0x8, addend: 0x0, symName: __ZNSt3__129_AllocatorDestroyRangeReverseINS_9allocatorIN2cv3VecIiLi4EEEEEPS4_EC2B8ue170006ERS5_RS6_S9_, symObjAddr: 0x2D24, symBinAddr: 0x1000079C0, symSize: 0x38 }
  - { offsetInCU: 0x1CBFB, offset: 0x1CBFB, size: 0x8, addend: 0x0, symName: __ZNSt3__19allocatorIN2cv3VecIiLi4EEEE9constructB8ue170006IS3_JRS3_EEEvPT_DpOT0_, symObjAddr: 0x2D5C, symBinAddr: 0x1000079F8, symSize: 0x30 }
  - { offsetInCU: 0x1CC51, offset: 0x1CC51, size: 0x8, addend: 0x0, symName: __ZN2cv3VecIiLi4EEC1ERKS1_, symObjAddr: 0x2D8C, symBinAddr: 0x100007A28, symSize: 0x34 }
  - { offsetInCU: 0x1CC8C, offset: 0x1CC8C, size: 0x8, addend: 0x0, symName: __ZN2cv3VecIiLi4EEC2ERKS1_, symObjAddr: 0x2DC0, symBinAddr: 0x100007A5C, symSize: 0x34 }
  - { offsetInCU: 0x1CCC7, offset: 0x1CCC7, size: 0x8, addend: 0x0, symName: __ZN2cv4MatxIiLi4ELi1EEC2EPKi, symObjAddr: 0x2DF4, symBinAddr: 0x100007A90, symSize: 0x6C }
  - { offsetInCU: 0x1CD1F, offset: 0x1CD1F, size: 0x8, addend: 0x0, symName: __ZNSt3__128__exception_guard_exceptionsINS_29_AllocatorDestroyRangeReverseINS_9allocatorIN2cv3VecIiLi4EEEEEPS5_EEED2B8ue170006Ev, symObjAddr: 0x2E60, symBinAddr: 0x100007AFC, symSize: 0x50 }
  - { offsetInCU: 0x1CD49, offset: 0x1CD49, size: 0x8, addend: 0x0, symName: __ZNKSt3__129_AllocatorDestroyRangeReverseINS_9allocatorIN2cv3VecIiLi4EEEEEPS4_EclB8ue170006Ev, symObjAddr: 0x2EB0, symBinAddr: 0x100007B4C, symSize: 0x68 }
  - { offsetInCU: 0x1CD6F, offset: 0x1CD6F, size: 0x8, addend: 0x0, symName: __ZNSt3__116reverse_iteratorIPN2cv3VecIiLi4EEEEC1B8ue170006ES4_, symObjAddr: 0x2F88, symBinAddr: 0x100007C24, symSize: 0x34 }
  - { offsetInCU: 0x1CDA7, offset: 0x1CDA7, size: 0x8, addend: 0x0, symName: __ZNSt3__116reverse_iteratorIPN2cv3VecIiLi4EEEEppB8ue170006Ev, symObjAddr: 0x3028, symBinAddr: 0x100007CC4, symSize: 0x20 }
  - { offsetInCU: 0x1CDCD, offset: 0x1CDCD, size: 0x8, addend: 0x0, symName: __ZNKSt3__116reverse_iteratorIPN2cv3VecIiLi4EEEE4baseB8ue170006Ev, symObjAddr: 0x3048, symBinAddr: 0x100007CE4, symSize: 0x18 }
  - { offsetInCU: 0x1CDF8, offset: 0x1CDF8, size: 0x8, addend: 0x0, symName: __ZNSt3__119__to_address_helperINS_16reverse_iteratorIPN2cv3VecIiLi4EEEEEvE6__callB8ue170006ERKS6_, symObjAddr: 0x3060, symBinAddr: 0x100007CFC, symSize: 0x38 }
  - { offsetInCU: 0x1CE1B, offset: 0x1CE1B, size: 0x8, addend: 0x0, symName: __ZNKSt3__116reverse_iteratorIPN2cv3VecIiLi4EEEEptB8ue170006Ev, symObjAddr: 0x3098, symBinAddr: 0x100007D34, symSize: 0x24 }
  - { offsetInCU: 0x1CE41, offset: 0x1CE41, size: 0x8, addend: 0x0, symName: __ZNKSt3__116reverse_iteratorIPN2cv3VecIiLi4EEEEdeB8ue170006Ev, symObjAddr: 0x30BC, symBinAddr: 0x100007D58, symSize: 0x28 }
  - { offsetInCU: 0x1CE76, offset: 0x1CE76, size: 0x8, addend: 0x0, symName: __ZNSt3__116reverse_iteratorIPN2cv3VecIiLi4EEEEC2B8ue170006ES4_, symObjAddr: 0x30E4, symBinAddr: 0x100007D80, symSize: 0x28 }
  - { offsetInCU: 0x1CEAE, offset: 0x1CEAE, size: 0x8, addend: 0x0, symName: __ZNSt3__118__unwrap_iter_implIPN2cv3VecIiLi4EEELb1EE8__unwrapB8ue170006ES4_, symObjAddr: 0x310C, symBinAddr: 0x100007DA8, symSize: 0x24 }
  - { offsetInCU: 0x1CED1, offset: 0x1CED1, size: 0x8, addend: 0x0, symName: __ZNSt3__118__unwrap_iter_implIPN2cv3VecIiLi4EEELb1EE8__rewrapB8ue170006ES4_S4_, symObjAddr: 0x3130, symBinAddr: 0x100007DCC, symSize: 0x50 }
  - { offsetInCU: 0x1CF02, offset: 0x1CF02, size: 0x8, addend: 0x0, symName: __ZNSt3__16vectorIN2cv3VecIiLi4EEENS_9allocatorIS3_EEE21_ConstructTransactionD2B8ue170006Ev, symObjAddr: 0x3180, symBinAddr: 0x100007E1C, symSize: 0x20 }
  - { offsetInCU: 0x1CF2C, offset: 0x1CF2C, size: 0x8, addend: 0x0, symName: __ZNSt3__128__exception_guard_exceptionsINS_6vectorIN2cv3VecIiLi4EEENS_9allocatorIS4_EEE16__destroy_vectorEED2B8ue170006Ev, symObjAddr: 0x31A0, symBinAddr: 0x100007E3C, symSize: 0x48 }
  - { offsetInCU: 0x26, offset: 0x1D03E, size: 0x8, addend: 0x0, symName: _main, symObjAddr: 0x0, symBinAddr: 0x100007E84, symSize: 0x308 }
  - { offsetInCU: 0xB49A, offset: 0x284B2, size: 0x8, addend: 0x0, symName: _main, symObjAddr: 0x0, symBinAddr: 0x100007E84, symSize: 0x308 }
  - { offsetInCU: 0xB50A, offset: 0x28522, size: 0x8, addend: 0x0, symName: __ZN2cv12_OutputArrayC1ERNS_3MatE, symObjAddr: 0x33C, symBinAddr: 0x10000818C, symSize: 0x34 }
  - { offsetInCU: 0xB545, offset: 0x2855D, size: 0x8, addend: 0x0, symName: __ZN2cv12_OutputArrayD1Ev, symObjAddr: 0x370, symBinAddr: 0x1000081C0, symSize: 0x2C }
  - { offsetInCU: 0xB571, offset: 0x28589, size: 0x8, addend: 0x0, symName: __ZN2cv12_OutputArrayC2ERNS_3MatE, symObjAddr: 0x3D8, symBinAddr: 0x1000081EC, symSize: 0x68 }
  - { offsetInCU: 0xB5AB, offset: 0x285C3, size: 0x8, addend: 0x0, symName: __ZN2cv11_InputArrayC2Ev, symObjAddr: 0x440, symBinAddr: 0x100008254, symSize: 0x40 }
  - { offsetInCU: 0xB5D8, offset: 0x285F0, size: 0x8, addend: 0x0, symName: __ZN2cv12_OutputArrayD2Ev, symObjAddr: 0x508, symBinAddr: 0x100008294, symSize: 0x2C }
  - { offsetInCU: 0x3F, offset: 0x28733, size: 0x8, addend: 0x0, symName: __ZL7KERNEL1, symObjAddr: 0x59020, symBinAddr: 0x100010000, symSize: 0x0 }
  - { offsetInCU: 0x36EA, offset: 0x2BDDE, size: 0x8, addend: 0x0, symName: __ZN2cvlsIfiEENS_20MatCommaInitializer_IT_EERKNS_4Mat_IS2_EET0_, symObjAddr: 0x0, symBinAddr: 0x1000082C0, symSize: 0x50 }
  - { offsetInCU: 0x3749, offset: 0x2BE3D, size: 0x8, addend: 0x0, symName: __ZN2cvL28morphologyDefaultBorderValueEv, symObjAddr: 0x7F8, symBinAddr: 0x1000089BC, symSize: 0x2C }
  - { offsetInCU: 0xCAB7, offset: 0x351AB, size: 0x8, addend: 0x0, symName: __ZL7KERNEL2, symObjAddr: 0x59080, symBinAddr: 0x100010060, symSize: 0x0 }
  - { offsetInCU: 0xEFE2, offset: 0x376D6, size: 0x8, addend: 0x0, symName: __ZN2cv4Mat_IfEC1Eii, symObjAddr: 0x50, symBinAddr: 0x100008310, symSize: 0x3C }
  - { offsetInCU: 0xF032, offset: 0x37726, size: 0x8, addend: 0x0, symName: __ZN2cv20MatCommaInitializer_IfEcmIiEERS1_T_, symObjAddr: 0x8C, symBinAddr: 0x10000834C, symSize: 0x50 }
  - { offsetInCU: 0xF073, offset: 0x37767, size: 0x8, addend: 0x0, symName: __ZNK2cv20MatCommaInitializer_IfEcvNS_4Mat_IfEEEv, symObjAddr: 0xDC, symBinAddr: 0x10000839C, symSize: 0x3C }
  - { offsetInCU: 0xF09C, offset: 0x37790, size: 0x8, addend: 0x0, symName: __ZN2cv4Mat_IfED1Ev, symObjAddr: 0x118, symBinAddr: 0x1000083D8, symSize: 0x2C }
  - { offsetInCU: 0xF0C9, offset: 0x377BD, size: 0x8, addend: 0x0, symName: __Z8cvt2grayN2cv3MatES0_, symObjAddr: 0x144, symBinAddr: 0x100008404, symSize: 0xB0 }
  - { offsetInCU: 0xF102, offset: 0x377F6, size: 0x8, addend: 0x0, symName: __Z10blurMethodN2cv3MatES0_, symObjAddr: 0x2B4, symBinAddr: 0x1000084B4, symSize: 0xBC }
  - { offsetInCU: 0xF13B, offset: 0x3782F, size: 0x8, addend: 0x0, symName: __Z6filterN2cv3MatES0_, symObjAddr: 0x370, symBinAddr: 0x100008570, symSize: 0x108 }
  - { offsetInCU: 0xF174, offset: 0x37868, size: 0x8, addend: 0x0, symName: __ZN2cv6Point_IiEC1Eii, symObjAddr: 0x478, symBinAddr: 0x100008678, symSize: 0x3C }
  - { offsetInCU: 0xF1BC, offset: 0x378B0, size: 0x8, addend: 0x0, symName: __Z15binaryThresholdN2cv3MatES0_, symObjAddr: 0x4B4, symBinAddr: 0x1000086B4, symSize: 0xC0 }
  - { offsetInCU: 0xF1F5, offset: 0x378E9, size: 0x8, addend: 0x0, symName: __Z13openOperationN2cv3MatES0_, symObjAddr: 0x574, symBinAddr: 0x100008774, symSize: 0x248 }
  - { offsetInCU: 0xF23E, offset: 0x37932, size: 0x8, addend: 0x0, symName: __Z14closeOperationN2cv3MatES0_, symObjAddr: 0x824, symBinAddr: 0x1000089E8, symSize: 0x248 }
  - { offsetInCU: 0xF286, offset: 0x3797A, size: 0x8, addend: 0x0, symName: __Z16connectComponetsN2cv3MatES0_S0_S0_, symObjAddr: 0xA6C, symBinAddr: 0x100008C30, symSize: 0x140 }
  - { offsetInCU: 0xF2F0, offset: 0x379E4, size: 0x8, addend: 0x0, symName: __ZN2cv4Mat_IfED2Ev, symObjAddr: 0xBAC, symBinAddr: 0x100008D70, symSize: 0x2C }
  - { offsetInCU: 0xF31D, offset: 0x37A11, size: 0x8, addend: 0x0, symName: __ZN2cv7Scalar_IdE3allEd, symObjAddr: 0xD50, symBinAddr: 0x100008D9C, symSize: 0x3C }
  - { offsetInCU: 0xF343, offset: 0x37A37, size: 0x8, addend: 0x0, symName: __ZN2cv7Scalar_IdEC1Edddd, symObjAddr: 0xD8C, symBinAddr: 0x100008DD8, symSize: 0x4C }
  - { offsetInCU: 0xF3AB, offset: 0x37A9F, size: 0x8, addend: 0x0, symName: __ZN2cv7Scalar_IdEC2Edddd, symObjAddr: 0xDD8, symBinAddr: 0x100008E24, symSize: 0x5C }
  - { offsetInCU: 0xF413, offset: 0x37B07, size: 0x8, addend: 0x0, symName: __ZN2cv3VecIdLi4EEC2Ev, symObjAddr: 0xE34, symBinAddr: 0x100008E80, symSize: 0x2C }
  - { offsetInCU: 0xF43F, offset: 0x37B33, size: 0x8, addend: 0x0, symName: __ZN2cv4MatxIdLi4ELi1EEC2Ev, symObjAddr: 0xE60, symBinAddr: 0x100008EAC, symSize: 0x60 }
  - { offsetInCU: 0xF489, offset: 0x37B7D, size: 0x8, addend: 0x0, symName: __ZN2cv6Point_IiEC2Eii, symObjAddr: 0xEEC, symBinAddr: 0x100008F0C, symSize: 0x2C }
  - { offsetInCU: 0xF4D1, offset: 0x37BC5, size: 0x8, addend: 0x0, symName: __ZN2cv4Mat_IfEC2Eii, symObjAddr: 0xF18, symBinAddr: 0x100008F38, symSize: 0x40 }
  - { offsetInCU: 0xF51C, offset: 0x37C10, size: 0x8, addend: 0x0, symName: __ZN2cv20MatCommaInitializer_IfEC1EPNS_4Mat_IfEE, symObjAddr: 0xF58, symBinAddr: 0x100008F78, symSize: 0x34 }
  - { offsetInCU: 0xF558, offset: 0x37C4C, size: 0x8, addend: 0x0, symName: __ZN2cv20MatCommaInitializer_IfEC1ERKS1_, symObjAddr: 0xF8C, symBinAddr: 0x100008FAC, symSize: 0x34 }
  - { offsetInCU: 0xF58E, offset: 0x37C82, size: 0x8, addend: 0x0, symName: __ZN2cv20MatCommaInitializer_IfEC2EPNS_4Mat_IfEE, symObjAddr: 0xFC0, symBinAddr: 0x100008FE0, symSize: 0x34 }
  - { offsetInCU: 0xF5CA, offset: 0x37CBE, size: 0x8, addend: 0x0, symName: __ZN2cv12MatIterator_IfEC1EPNS_4Mat_IfEE, symObjAddr: 0xFF4, symBinAddr: 0x100009014, symSize: 0x34 }
  - { offsetInCU: 0xF606, offset: 0x37CFA, size: 0x8, addend: 0x0, symName: __ZN2cv12MatIterator_IfEC2EPNS_4Mat_IfEE, symObjAddr: 0x1028, symBinAddr: 0x100009048, symSize: 0x34 }
  - { offsetInCU: 0xF642, offset: 0x37D36, size: 0x8, addend: 0x0, symName: __ZN2cv17MatConstIterator_IfEC2EPKNS_4Mat_IfEE, symObjAddr: 0x105C, symBinAddr: 0x10000907C, symSize: 0x34 }
  - { offsetInCU: 0xF67E, offset: 0x37D72, size: 0x8, addend: 0x0, symName: __ZN2cv16MatConstIteratorC2EPKNS_3MatE, symObjAddr: 0x1090, symBinAddr: 0x1000090B0, symSize: 0x154 }
  - { offsetInCU: 0xF6BA, offset: 0x37DAE, size: 0x8, addend: 0x0, symName: __ZNK2cv3Mat8elemSizeEv, symObjAddr: 0x11E4, symBinAddr: 0x100009204, symSize: 0x60 }
  - { offsetInCU: 0xF6F2, offset: 0x37DE6, size: 0x8, addend: 0x0, symName: __ZNK2cv3Mat12isContinuousEv, symObjAddr: 0x1244, symBinAddr: 0x100009264, symSize: 0x24 }
  - { offsetInCU: 0xF720, offset: 0x37E14, size: 0x8, addend: 0x0, symName: __ZNK2cv3Mat3ptrEi, symObjAddr: 0x129C, symBinAddr: 0x100009288, symSize: 0x30 }
  - { offsetInCU: 0xF758, offset: 0x37E4C, size: 0x8, addend: 0x0, symName: __ZN2cv20MatCommaInitializer_IfEC2ERKS1_, symObjAddr: 0x1480, symBinAddr: 0x1000092B8, symSize: 0x34 }
  - { offsetInCU: 0xF78E, offset: 0x37E82, size: 0x8, addend: 0x0, symName: __ZN2cv12MatIterator_IfEC1ERKS1_, symObjAddr: 0x14B4, symBinAddr: 0x1000092EC, symSize: 0x34 }
  - { offsetInCU: 0xF7CA, offset: 0x37EBE, size: 0x8, addend: 0x0, symName: __ZN2cv12MatIterator_IfEC2ERKS1_, symObjAddr: 0x14E8, symBinAddr: 0x100009320, symSize: 0x34 }
  - { offsetInCU: 0xF806, offset: 0x37EFA, size: 0x8, addend: 0x0, symName: __ZN2cv17MatConstIterator_IfEC2ERKS1_, symObjAddr: 0x151C, symBinAddr: 0x100009354, symSize: 0x34 }
  - { offsetInCU: 0xF842, offset: 0x37F36, size: 0x8, addend: 0x0, symName: __ZN2cv16MatConstIteratorC2ERKS0_, symObjAddr: 0x1550, symBinAddr: 0x100009388, symSize: 0x54 }
  - { offsetInCU: 0xF87E, offset: 0x37F72, size: 0x8, addend: 0x0, symName: __ZNK2cv12MatIterator_IfEdeEv, symObjAddr: 0x15A4, symBinAddr: 0x1000093DC, symSize: 0x18 }
  - { offsetInCU: 0xF8A7, offset: 0x37F9B, size: 0x8, addend: 0x0, symName: __ZN2cv12MatIterator_IfEppEv, symObjAddr: 0x15BC, symBinAddr: 0x1000093F4, symSize: 0x2C }
  - { offsetInCU: 0xF8D0, offset: 0x37FC4, size: 0x8, addend: 0x0, symName: __ZN2cv16MatConstIteratorppEv, symObjAddr: 0x15E8, symBinAddr: 0x100009420, symSize: 0x8C }
  - { offsetInCU: 0xF8F9, offset: 0x37FED, size: 0x8, addend: 0x0, symName: __ZN2cv4Mat_IfEC1ERKNS_3MatE, symObjAddr: 0x1674, symBinAddr: 0x1000094AC, symSize: 0x34 }
  - { offsetInCU: 0xF935, offset: 0x38029, size: 0x8, addend: 0x0, symName: __ZN2cv4Mat_IfEC2ERKNS_3MatE, symObjAddr: 0x16A8, symBinAddr: 0x1000094E0, symSize: 0x74 }
  - { offsetInCU: 0xF971, offset: 0x38065, size: 0x8, addend: 0x0, symName: __ZN2cv4Mat_IfEaSERKNS_3MatE, symObjAddr: 0x171C, symBinAddr: 0x100009554, symSize: 0x208 }
  - { offsetInCU: 0xF9A9, offset: 0x3809D, size: 0x8, addend: 0x0, symName: __ZN2cv4Mat_IfE7releaseEv, symObjAddr: 0x1924, symBinAddr: 0x10000975C, symSize: 0x3C }
  - { offsetInCU: 0xF9D2, offset: 0x380C6, size: 0x8, addend: 0x0, symName: __ZNK2cv3Mat4typeEv, symObjAddr: 0x1960, symBinAddr: 0x100009798, symSize: 0x1C }
  - { offsetInCU: 0xF9FB, offset: 0x380EF, size: 0x8, addend: 0x0, symName: __ZNK2cv3Mat5depthEv, symObjAddr: 0x197C, symBinAddr: 0x1000097B4, symSize: 0x1C }
  - { offsetInCU: 0xFA24, offset: 0x38118, size: 0x8, addend: 0x0, symName: __ZN2cv4Mat_IfEaSEONS_3MatE, symObjAddr: 0x1998, symBinAddr: 0x1000097D0, symSize: 0x170 }
  - { offsetInCU: 0xFA5C, offset: 0x38150, size: 0x8, addend: 0x0, symName: __ZNK2cv3Mat8channelsEv, symObjAddr: 0x1B08, symBinAddr: 0x100009940, symSize: 0x24 }
  - { offsetInCU: 0xFA85, offset: 0x38179, size: 0x8, addend: 0x0, symName: __ZN2cv12_OutputArrayC1IfEERNS_4Mat_IT_EE, symObjAddr: 0x1B2C, symBinAddr: 0x100009964, symSize: 0x34 }
  - { offsetInCU: 0xFAC6, offset: 0x381BA, size: 0x8, addend: 0x0, symName: __ZNK2cv4Mat_IfE4typeEv, symObjAddr: 0x1B60, symBinAddr: 0x100009998, symSize: 0x14 }
  - { offsetInCU: 0xFAEF, offset: 0x381E3, size: 0x8, addend: 0x0, symName: __ZN2cv12_OutputArrayC2IfEERNS_4Mat_IT_EE, symObjAddr: 0x1B74, symBinAddr: 0x1000099AC, symSize: 0x44 }
  - { offsetInCU: 0x26, offset: 0x38280, size: 0x8, addend: 0x0, symName: __Z7processN2cv3MatES0_, symObjAddr: 0x0, symBinAddr: 0x100009CF0, symSize: 0x474 }
  - { offsetInCU: 0x6829, offset: 0x3EA83, size: 0x8, addend: 0x0, symName: __Z7processN2cv3MatES0_, symObjAddr: 0x0, symBinAddr: 0x100009CF0, symSize: 0x474 }
  - { offsetInCU: 0x26, offset: 0x3EB37, size: 0x8, addend: 0x0, symName: __Z10lineDetectN2cv3MatES0_, symObjAddr: 0x0, symBinAddr: 0x10000A164, symSize: 0xC4 }
  - { offsetInCU: 0xAFCB, offset: 0x49ADC, size: 0x8, addend: 0x0, symName: __Z10lineDetectN2cv3MatES0_, symObjAddr: 0x0, symBinAddr: 0x10000A164, symSize: 0xC4 }
  - { offsetInCU: 0xB004, offset: 0x49B15, size: 0x8, addend: 0x0, symName: __Z9roiSelectN2cv3MatES0_, symObjAddr: 0x184, symBinAddr: 0x10000A228, symSize: 0x2CC }
  - { offsetInCU: 0xB05D, offset: 0x49B6E, size: 0x8, addend: 0x0, symName: __ZNK2cv7MatExprcvNS_3MatEEv, symObjAddr: 0x48C, symBinAddr: 0x10000A4F4, symSize: 0xB8 }
  - { offsetInCU: 0xB096, offset: 0x49BA7, size: 0x8, addend: 0x0, symName: __ZN2cv7MatExprD1Ev, symObjAddr: 0x544, symBinAddr: 0x10000A5AC, symSize: 0x2C }
  - { offsetInCU: 0xB0C4, offset: 0x49BD5, size: 0x8, addend: 0x0, symName: __ZN2cv6Point_IiEC1Ev, symObjAddr: 0x570, symBinAddr: 0x10000A5D8, symSize: 0x2C }
  - { offsetInCU: 0xB0F4, offset: 0x49C05, size: 0x8, addend: 0x0, symName: __ZN2cv17_InputOutputArrayC1ERNS_3MatE, symObjAddr: 0x5D8, symBinAddr: 0x10000A604, symSize: 0x34 }
  - { offsetInCU: 0xB131, offset: 0x49C42, size: 0x8, addend: 0x0, symName: __ZN2cv7Scalar_IdEC1Ed, symObjAddr: 0x60C, symBinAddr: 0x10000A638, symSize: 0x34 }
  - { offsetInCU: 0xB16B, offset: 0x49C7C, size: 0x8, addend: 0x0, symName: __ZN2cv17_InputOutputArrayD1Ev, symObjAddr: 0x640, symBinAddr: 0x10000A66C, symSize: 0x2C }
  - { offsetInCU: 0xB198, offset: 0x49CA9, size: 0x8, addend: 0x0, symName: __Z9transformN2cv3MatENSt3__16vectorINS_3VecIiLi4EEENS1_9allocatorIS4_EEEE, symObjAddr: 0x66C, symBinAddr: 0x10000A698, symSize: 0x108 }
  - { offsetInCU: 0xB21D, offset: 0x49D2E, size: 0x8, addend: 0x0, symName: __ZN2cv12_OutputArrayC1INS_3VecIiLi4EEEEERNSt3__16vectorIT_NS4_9allocatorIS6_EEEE, symObjAddr: 0x774, symBinAddr: 0x10000A7A0, symSize: 0x34 }
  - { offsetInCU: 0xB25D, offset: 0x49D6E, size: 0x8, addend: 0x0, symName: __Z8simulateN2cv3MatES0_NSt3__16vectorINS_3VecIiLi4EEENS1_9allocatorIS4_EEEE, symObjAddr: 0x7A8, symBinAddr: 0x10000A7D4, symSize: 0x198 }
  - { offsetInCU: 0xB2D0, offset: 0x49DE1, size: 0x8, addend: 0x0, symName: __ZNSt3__16vectorIN2cv3VecIiLi4EEENS_9allocatorIS3_EEEixB8ue170006Em, symObjAddr: 0x968, symBinAddr: 0x10000A96C, symSize: 0x24 }
  - { offsetInCU: 0xB307, offset: 0x49E18, size: 0x8, addend: 0x0, symName: __ZN2cv3VecIiLi4EEixEi, symObjAddr: 0x9C0, symBinAddr: 0x10000A990, symSize: 0x20 }
  - { offsetInCU: 0xB33D, offset: 0x49E4E, size: 0x8, addend: 0x0, symName: __Z8mixLinesN2cv3MatES0_S0_, symObjAddr: 0xA2C, symBinAddr: 0x10000A9B0, symSize: 0x220 }
  - { offsetInCU: 0xB385, offset: 0x49E96, size: 0x8, addend: 0x0, symName: __ZN2cv7MatExprD2Ev, symObjAddr: 0xE48, symBinAddr: 0x10000ABD0, symSize: 0x48 }
  - { offsetInCU: 0xB3B2, offset: 0x49EC3, size: 0x8, addend: 0x0, symName: __ZN2cv17_InputOutputArrayC2ERNS_3MatE, symObjAddr: 0xE90, symBinAddr: 0x10000AC18, symSize: 0x40 }
  - { offsetInCU: 0xB3EE, offset: 0x49EFF, size: 0x8, addend: 0x0, symName: __ZN2cv12_OutputArrayC2Ev, symObjAddr: 0xED0, symBinAddr: 0x10000AC58, symSize: 0x3C }
  - { offsetInCU: 0xB41A, offset: 0x49F2B, size: 0x8, addend: 0x0, symName: __ZN2cv17_InputOutputArrayD2Ev, symObjAddr: 0xF0C, symBinAddr: 0x10000AC94, symSize: 0x2C }
  - { offsetInCU: 0xB448, offset: 0x49F59, size: 0x8, addend: 0x0, symName: __ZN2cv6Point_IiEC2Ev, symObjAddr: 0xF64, symBinAddr: 0x10000ACC0, symSize: 0x1C }
  - { offsetInCU: 0xB474, offset: 0x49F85, size: 0x8, addend: 0x0, symName: __ZN2cv7Scalar_IdEC2Ed, symObjAddr: 0xF80, symBinAddr: 0x10000ACDC, symSize: 0x48 }
  - { offsetInCU: 0xB4AF, offset: 0x49FC0, size: 0x8, addend: 0x0, symName: __ZN2cv12_OutputArrayC2INS_3VecIiLi4EEEEERNSt3__16vectorIT_NS4_9allocatorIS6_EEEE, symObjAddr: 0x1054, symBinAddr: 0x10000AD24, symSize: 0x44 }
  - { offsetInCU: 0x6829, offset: 0x50858, size: 0x8, addend: 0x0, symName: __Z19readAndDisplayVideoRKNSt3__112basic_stringIcNS_11char_traitsIcEENS_9allocatorIcEEEERN2cv12VideoCaptureERd, symObjAddr: 0x0, symBinAddr: 0x10000AD68, symSize: 0x98 }
  - { offsetInCU: 0x686E, offset: 0x5089D, size: 0x8, addend: 0x0, symName: __Z12createWindowRN2cv12VideoCaptureE, symObjAddr: 0x164, symBinAddr: 0x10000AE00, symSize: 0x68 }
  - { offsetInCU: 0x689C, offset: 0x508CB, size: 0x8, addend: 0x0, symName: __Z10releaseCapRN2cv12VideoCaptureE, symObjAddr: 0x200, symBinAddr: 0x10000AE68, symSize: 0x30 }
...
